target datalayout = "e-m:e-p270:32:32-p271:32:32-p272:64:64-i64:64-i128:128-f80:128-n8:16:32:64-S128"
target triple = "x86_64-pc-linux-gnu"

%class.VNType = type { i16 }
%class.AstNode = type { ptr, ptr, ptr, ptr, ptr, ptr, ptr, ptr, %class.VNType, %struct.anon, i8, i32, ptr, ptr, ptr, ptr, %class.VNUser, i32, i32, %class.VNUser, %class.VNUser, i32, i32, %class.VNUser }
%struct.anon = type { i8 }
%class.VNUser = type { %union.anon.3 }
%union.anon.3 = type { ptr }

; Function Attrs: mustprogress uwtable
define dso_local noundef zeroext i1 @_ZNK7AstNode12gateTreeIterEv(ptr noundef nonnull align 8 dereferenceable(152) %0) #4 align 2 {
  %2 = alloca i1, align 1
  %3 = alloca ptr, align 8
  store ptr %0, ptr %3, align 8
  %4 = load ptr, ptr %3, align 8
  %5 = load ptr, ptr %4, align 8
  %6 = getelementptr inbounds ptr, ptr %5, i64 19
  %7 = load ptr, ptr %6, align 8
  %8 = call noundef zeroext i1 %7(ptr noundef nonnull align 8 dereferenceable(152) %4)
  br i1 %8, label %10, label %9

9:                                                ; preds = %1
  store i1 false, ptr %2, align 1
  br label %47

10:                                               ; preds = %1
  %11 = getelementptr inbounds %class.AstNode, ptr %4, i32 0, i32 3
  %12 = load ptr, ptr %11, align 8
  %13 = icmp ne ptr %12, null
  br i1 %13, label %14, label %19

14:                                               ; preds = %10
  %15 = getelementptr inbounds %class.AstNode, ptr %4, i32 0, i32 3
  %16 = load ptr, ptr %15, align 8
  %17 = call noundef zeroext i1 @_ZNK7AstNode12gateTreeIterEv(ptr noundef nonnull align 8 dereferenceable(152) %16)
  br i1 %17, label %19, label %18

18:                                               ; preds = %14
  store i1 false, ptr %2, align 1
  br label %47

19:                                               ; preds = %14, %10
  %20 = getelementptr inbounds %class.AstNode, ptr %4, i32 0, i32 4
  %21 = load ptr, ptr %20, align 8
  %22 = icmp ne ptr %21, null
  br i1 %22, label %23, label %28

23:                                               ; preds = %19
  %24 = getelementptr inbounds %class.AstNode, ptr %4, i32 0, i32 4
  %25 = load ptr, ptr %24, align 8
  %26 = call noundef zeroext i1 @_ZNK7AstNode12gateTreeIterEv(ptr noundef nonnull align 8 dereferenceable(152) %25)
  br i1 %26, label %28, label %27

27:                                               ; preds = %23
  store i1 false, ptr %2, align 1
  br label %47

28:                                               ; preds = %23, %19
  %29 = getelementptr inbounds %class.AstNode, ptr %4, i32 0, i32 5
  %30 = load ptr, ptr %29, align 8
  %31 = icmp ne ptr %30, null
  br i1 %31, label %32, label %37

32:                                               ; preds = %28
  %33 = getelementptr inbounds %class.AstNode, ptr %4, i32 0, i32 5
  %34 = load ptr, ptr %33, align 8
  %35 = call noundef zeroext i1 @_ZNK7AstNode12gateTreeIterEv(ptr noundef nonnull align 8 dereferenceable(152) %34)
  br i1 %35, label %37, label %36

36:                                               ; preds = %32
  store i1 false, ptr %2, align 1
  br label %47

37:                                               ; preds = %32, %28
  %38 = getelementptr inbounds %class.AstNode, ptr %4, i32 0, i32 6
  %39 = load ptr, ptr %38, align 8
  %40 = icmp ne ptr %39, null
  br i1 %40, label %41, label %46

41:                                               ; preds = %37
  %42 = getelementptr inbounds %class.AstNode, ptr %4, i32 0, i32 6
  %43 = load ptr, ptr %42, align 8
  %44 = call noundef zeroext i1 @_ZNK7AstNode12gateTreeIterEv(ptr noundef nonnull align 8 dereferenceable(152) %43)
  br i1 %44, label %46, label %45

45:                                               ; preds = %41
  store i1 false, ptr %2, align 1
  br label %47

46:                                               ; preds = %41, %37
  store i1 true, ptr %2, align 1
  br label %47

47:                                               ; preds = %46, %45, %36, %27, %18, %9
  %48 = load i1, ptr %2, align 1
  ret i1 %48
}