; Function Attrs: mustprogress uwtable
define dso_local noundef zeroext i1 @_ZNK7AstNode12gateTreeIterEv(ptr noundef nonnull align 8 dereferenceable(152) %0) local_unnamed_addr #4 align 2 {
  %2 = load ptr, ptr %0, align 8
  %3 = getelementptr inbounds i8, ptr %2, i64 152
  %4 = load ptr, ptr %3, align 8
  %5 = tail call noundef zeroext i1 %4(ptr noundef nonnull align 8 dereferenceable(152) %0)
  br i1 %5, label %6, label %27

6:                                                ; preds = %1
  %7 = getelementptr inbounds i8, ptr %0, i64 24
  %8 = load ptr, ptr %7, align 8
  %.not = icmp eq ptr %8, null
  br i1 %.not, label %11, label %9

9:                                                ; preds = %6
  %10 = tail call noundef zeroext i1 @_ZNK7AstNode12gateTreeIterEv(ptr noundef nonnull align 8 dereferenceable(152) %8)
  br i1 %10, label %11, label %27

11:                                               ; preds = %9, %6
  %12 = getelementptr inbounds i8, ptr %0, i64 32
  %13 = load ptr, ptr %12, align 8
  %.not6 = icmp eq ptr %13, null
  br i1 %.not6, label %16, label %14

14:                                               ; preds = %11
  %15 = tail call noundef zeroext i1 @_ZNK7AstNode12gateTreeIterEv(ptr noundef nonnull align 8 dereferenceable(152) %13)
  br i1 %15, label %16, label %27

16:                                               ; preds = %14, %11
  %17 = getelementptr inbounds i8, ptr %0, i64 40
  %18 = load ptr, ptr %17, align 8
  %.not7 = icmp eq ptr %18, null
  br i1 %.not7, label %21, label %19

19:                                               ; preds = %16
  %20 = tail call noundef zeroext i1 @_ZNK7AstNode12gateTreeIterEv(ptr noundef nonnull align 8 dereferenceable(152) %18)
  br i1 %20, label %21, label %27

21:                                               ; preds = %19, %16
  %22 = getelementptr inbounds i8, ptr %0, i64 48
  %23 = load ptr, ptr %22, align 8
  %.not8 = icmp eq ptr %23, null
  br i1 %.not8, label %26, label %24

24:                                               ; preds = %21
  %25 = tail call noundef zeroext i1 @_ZNK7AstNode12gateTreeIterEv(ptr noundef nonnull align 8 dereferenceable(152) %23)
  br i1 %25, label %26, label %27

26:                                               ; preds = %24, %21
  br label %27

27:                                               ; preds = %24, %19, %14, %9, %1, %26
  %.0 = phi i1 [ true, %26 ], [ false, %1 ], [ false, %9 ], [ false, %14 ], [ false, %19 ], [ false, %24 ]
  ret i1 %.0
}